target datalayout = "e-m:e-p270:32:32-p271:32:32-p272:64:64-i64:64-i128:128-f80:128-n8:16:32:64-S128"
target triple = "x86_64-unknown-linux-gnu"

%"class.cvc5::internal::FatalStream" = type { i8 }

@.str = private unnamed_addr constant [5 x i8] c"none\00", align 1
@.str.1 = private unnamed_addr constant [5 x i8] c"inst\00", align 1
@.str.2 = private unnamed_addr constant [6 x i8] c"sygus\00", align 1
@.str.3 = private unnamed_addr constant [14 x i8] c"sygus-grammar\00", align 1
@.str.4 = private unnamed_addr constant [17 x i8] c"sygus-enumerator\00", align 1
@.str.5 = private unnamed_addr constant [16 x i8] c"sygus-sol-gterm\00", align 1
@.str.6 = private unnamed_addr constant [8 x i8] c"trigger\00", align 1
@.str.7 = private unnamed_addr constant [14 x i8] c"raw-benchmark\00", align 1
@.str.8 = private unnamed_addr constant [13 x i8] c"learned-lits\00", align 1
@.str.9 = private unnamed_addr constant [5 x i8] c"subs\00", align 1
@.str.10 = private unnamed_addr constant [13 x i8] c"post-asserts\00", align 1
@.str.11 = private unnamed_addr constant [12 x i8] c"pre-asserts\00", align 1
@.str.12 = private unnamed_addr constant [13 x i8] c"deep-restart\00", align 1
@.str.13 = private unnamed_addr constant [11 x i8] c"incomplete\00", align 1
@.str.14 = private unnamed_addr constant [7 x i8] c"lemmas\00", align 1
@.str.15 = private unnamed_addr constant [20 x i8] c"trusted-proof-steps\00", align 1
@.str.16 = private unnamed_addr constant [23 x i8] c"timeout-core-benchmark\00", align 1
@.str.17 = private unnamed_addr constant [21 x i8] c"unsat-core-benchmark\00", align 1
@.str.18 = private unnamed_addr constant [10 x i8] c"portfolio\00", align 1
@.str.19 = private unnamed_addr constant [12 x i8] c"block-model\00", align 1
@__PRETTY_FUNCTION__._ZN4cvc58internal7optionslsERSoNS1_9OutputTagE = private unnamed_addr constant [77 x i8] c"std::ostream &cvc5::internal::options::operator<<(std::ostream &, OutputTag)\00", align 1
@.str.20 = private unnamed_addr constant [123 x i8] c"generated/home/dtcxzyw/WorkSpace/Projects/compilers/llvm-opt-benchmark/bench/cvc5/bench_build/src/options/base_options.cpp\00", align 1
@.str.21 = private unnamed_addr constant [26 x i8] c"Unreachable code reached \00", align 1

; Function Attrs: mustprogress uwtable
define hidden noundef nonnull align 8 dereferenceable(8) ptr @_ZN4cvc58internal7optionslsERSoNS1_9OutputTagE(ptr noundef nonnull align 8 dereferenceable(8) %os, i32 noundef %mode) #4 personality ptr @__gxx_personality_v0 {
entry:
  %retval = alloca ptr, align 8
  %os.addr = alloca ptr, align 8
  %mode.addr = alloca i32, align 4
  %ref.tmp = alloca %"class.cvc5::internal::FatalStream", align 1
  %exn.slot = alloca ptr, align 8
  %ehselector.slot = alloca i32, align 4
  store ptr %os, ptr %os.addr, align 8
  store i32 %mode, ptr %mode.addr, align 4
  %0 = load i32, ptr %mode.addr, align 4
  switch i32 %0, label %sw.default [
    i32 0, label %sw.bb
    i32 1, label %sw.bb1
    i32 2, label %sw.bb3
    i32 3, label %sw.bb5
    i32 4, label %sw.bb7
    i32 5, label %sw.bb9
    i32 6, label %sw.bb11
    i32 7, label %sw.bb13
    i32 8, label %sw.bb15
    i32 9, label %sw.bb17
    i32 10, label %sw.bb19
    i32 11, label %sw.bb21
    i32 12, label %sw.bb23
    i32 13, label %sw.bb25
    i32 14, label %sw.bb27
    i32 15, label %sw.bb29
    i32 16, label %sw.bb31
    i32 17, label %sw.bb33
    i32 18, label %sw.bb35
    i32 19, label %sw.bb37
  ]

sw.bb:                                            ; preds = %entry
  %1 = load ptr, ptr %os.addr, align 8
  %call = call noundef nonnull align 8 dereferenceable(8) ptr @_ZStlsISt11char_traitsIcEERSt13basic_ostreamIcT_ES5_PKc(ptr noundef nonnull align 8 dereferenceable(8) %1, ptr noundef @.str)
  store ptr %call, ptr %retval, align 8
  br label %return

sw.bb1:                                           ; preds = %entry
  %2 = load ptr, ptr %os.addr, align 8
  %call2 = call noundef nonnull align 8 dereferenceable(8) ptr @_ZStlsISt11char_traitsIcEERSt13basic_ostreamIcT_ES5_PKc(ptr noundef nonnull align 8 dereferenceable(8) %2, ptr noundef @.str.1)
  store ptr %call2, ptr %retval, align 8
  br label %return

sw.bb3:                                           ; preds = %entry
  %3 = load ptr, ptr %os.addr, align 8
  %call4 = call noundef nonnull align 8 dereferenceable(8) ptr @_ZStlsISt11char_traitsIcEERSt13basic_ostreamIcT_ES5_PKc(ptr noundef nonnull align 8 dereferenceable(8) %3, ptr noundef @.str.2)
  store ptr %call4, ptr %retval, align 8
  br label %return

sw.bb5:                                           ; preds = %entry
  %4 = load ptr, ptr %os.addr, align 8
  %call6 = call noundef nonnull align 8 dereferenceable(8) ptr @_ZStlsISt11char_traitsIcEERSt13basic_ostreamIcT_ES5_PKc(ptr noundef nonnull align 8 dereferenceable(8) %4, ptr noundef @.str.3)
  store ptr %call6, ptr %retval, align 8
  br label %return

sw.bb7:                                           ; preds = %entry
  %5 = load ptr, ptr %os.addr, align 8
  %call8 = call noundef nonnull align 8 dereferenceable(8) ptr @_ZStlsISt11char_traitsIcEERSt13basic_ostreamIcT_ES5_PKc(ptr noundef nonnull align 8 dereferenceable(8) %5, ptr noundef @.str.4)
  store ptr %call8, ptr %retval, align 8
  br label %return

sw.bb9:                                           ; preds = %entry
  %6 = load ptr, ptr %os.addr, align 8
  %call10 = call noundef nonnull align 8 dereferenceable(8) ptr @_ZStlsISt11char_traitsIcEERSt13basic_ostreamIcT_ES5_PKc(ptr noundef nonnull align 8 dereferenceable(8) %6, ptr noundef @.str.5)
  store ptr %call10, ptr %retval, align 8
  br label %return

sw.bb11:                                          ; preds = %entry
  %7 = load ptr, ptr %os.addr, align 8
  %call12 = call noundef nonnull align 8 dereferenceable(8) ptr @_ZStlsISt11char_traitsIcEERSt13basic_ostreamIcT_ES5_PKc(ptr noundef nonnull align 8 dereferenceable(8) %7, ptr noundef @.str.6)
  store ptr %call12, ptr %retval, align 8
  br label %return

sw.bb13:                                          ; preds = %entry
  %8 = load ptr, ptr %os.addr, align 8
  %call14 = call noundef nonnull align 8 dereferenceable(8) ptr @_ZStlsISt11char_traitsIcEERSt13basic_ostreamIcT_ES5_PKc(ptr noundef nonnull align 8 dereferenceable(8) %8, ptr noundef @.str.7)
  store ptr %call14, ptr %retval, align 8
  br label %return

sw.bb15:                                          ; preds = %entry
  %9 = load ptr, ptr %os.addr, align 8
  %call16 = call noundef nonnull align 8 dereferenceable(8) ptr @_ZStlsISt11char_traitsIcEERSt13basic_ostreamIcT_ES5_PKc(ptr noundef nonnull align 8 dereferenceable(8) %9, ptr noundef @.str.8)
  store ptr %call16, ptr %retval, align 8
  br label %return

sw.bb17:                                          ; preds = %entry
  %10 = load ptr, ptr %os.addr, align 8
  %call18 = call noundef nonnull align 8 dereferenceable(8) ptr @_ZStlsISt11char_traitsIcEERSt13basic_ostreamIcT_ES5_PKc(ptr noundef nonnull align 8 dereferenceable(8) %10, ptr noundef @.str.9)
  store ptr %call18, ptr %retval, align 8
  br label %return

sw.bb19:                                          ; preds = %entry
  %11 = load ptr, ptr %os.addr, align 8
  %call20 = call noundef nonnull align 8 dereferenceable(8) ptr @_ZStlsISt11char_traitsIcEERSt13basic_ostreamIcT_ES5_PKc(ptr noundef nonnull align 8 dereferenceable(8) %11, ptr noundef @.str.10)
  store ptr %call20, ptr %retval, align 8
  br label %return

sw.bb21:                                          ; preds = %entry
  %12 = load ptr, ptr %os.addr, align 8
  %call22 = call noundef nonnull align 8 dereferenceable(8) ptr @_ZStlsISt11char_traitsIcEERSt13basic_ostreamIcT_ES5_PKc(ptr noundef nonnull align 8 dereferenceable(8) %12, ptr noundef @.str.11)
  store ptr %call22, ptr %retval, align 8
  br label %return

sw.bb23:                                          ; preds = %entry
  %13 = load ptr, ptr %os.addr, align 8
  %call24 = call noundef nonnull align 8 dereferenceable(8) ptr @_ZStlsISt11char_traitsIcEERSt13basic_ostreamIcT_ES5_PKc(ptr noundef nonnull align 8 dereferenceable(8) %13, ptr noundef @.str.12)
  store ptr %call24, ptr %retval, align 8
  br label %return

sw.bb25:                                          ; preds = %entry
  %14 = load ptr, ptr %os.addr, align 8
  %call26 = call noundef nonnull align 8 dereferenceable(8) ptr @_ZStlsISt11char_traitsIcEERSt13basic_ostreamIcT_ES5_PKc(ptr noundef nonnull align 8 dereferenceable(8) %14, ptr noundef @.str.13)
  store ptr %call26, ptr %retval, align 8
  br label %return

sw.bb27:                                          ; preds = %entry
  %15 = load ptr, ptr %os.addr, align 8
  %call28 = call noundef nonnull align 8 dereferenceable(8) ptr @_ZStlsISt11char_traitsIcEERSt13basic_ostreamIcT_ES5_PKc(ptr noundef nonnull align 8 dereferenceable(8) %15, ptr noundef @.str.14)
  store ptr %call28, ptr %retval, align 8
  br label %return

sw.bb29:                                          ; preds = %entry
  %16 = load ptr, ptr %os.addr, align 8
  %call30 = call noundef nonnull align 8 dereferenceable(8) ptr @_ZStlsISt11char_traitsIcEERSt13basic_ostreamIcT_ES5_PKc(ptr noundef nonnull align 8 dereferenceable(8) %16, ptr noundef @.str.15)
  store ptr %call30, ptr %retval, align 8
  br label %return

sw.bb31:                                          ; preds = %entry
  %17 = load ptr, ptr %os.addr, align 8
  %call32 = call noundef nonnull align 8 dereferenceable(8) ptr @_ZStlsISt11char_traitsIcEERSt13basic_ostreamIcT_ES5_PKc(ptr noundef nonnull align 8 dereferenceable(8) %17, ptr noundef @.str.16)
  store ptr %call32, ptr %retval, align 8
  br label %return

sw.bb33:                                          ; preds = %entry
  %18 = load ptr, ptr %os.addr, align 8
  %call34 = call noundef nonnull align 8 dereferenceable(8) ptr @_ZStlsISt11char_traitsIcEERSt13basic_ostreamIcT_ES5_PKc(ptr noundef nonnull align 8 dereferenceable(8) %18, ptr noundef @.str.17)
  store ptr %call34, ptr %retval, align 8
  br label %return

sw.bb35:                                          ; preds = %entry
  %19 = load ptr, ptr %os.addr, align 8
  %call36 = call noundef nonnull align 8 dereferenceable(8) ptr @_ZStlsISt11char_traitsIcEERSt13basic_ostreamIcT_ES5_PKc(ptr noundef nonnull align 8 dereferenceable(8) %19, ptr noundef @.str.18)
  store ptr %call36, ptr %retval, align 8
  br label %return

sw.bb37:                                          ; preds = %entry
  %20 = load ptr, ptr %os.addr, align 8
  %call38 = call noundef nonnull align 8 dereferenceable(8) ptr @_ZStlsISt11char_traitsIcEERSt13basic_ostreamIcT_ES5_PKc(ptr noundef nonnull align 8 dereferenceable(8) %20, ptr noundef @.str.19)
  store ptr %call38, ptr %retval, align 8
  br label %return

sw.default:                                       ; preds = %entry
  call void @_ZN4cvc58internal11FatalStreamC1EPKcS3_i(ptr noundef nonnull align 1 dereferenceable(1) %ref.tmp, ptr noundef @__PRETTY_FUNCTION__._ZN4cvc58internal7optionslsERSoNS1_9OutputTagE, ptr noundef @.str.20, i32 noundef 52)
  %call39 = invoke noundef nonnull align 8 dereferenceable(8) ptr @_ZN4cvc58internal11FatalStream6streamEv(ptr noundef nonnull align 1 dereferenceable(1) %ref.tmp)
          to label %invoke.cont unwind label %lpad

invoke.cont:                                      ; preds = %sw.default
  %call41 = invoke noundef nonnull align 8 dereferenceable(8) ptr @_ZStlsISt11char_traitsIcEERSt13basic_ostreamIcT_ES5_PKc(ptr noundef nonnull align 8 dereferenceable(8) %call39, ptr noundef @.str.21)
          to label %invoke.cont40 unwind label %lpad

invoke.cont40:                                    ; preds = %invoke.cont
  call void @_ZN4cvc58internal11FatalStreamD1Ev(ptr noundef nonnull align 1 dereferenceable(1) %ref.tmp) #10
  unreachable

lpad:                                             ; preds = %invoke.cont, %sw.default
  %21 = landingpad { ptr, i32 }
          cleanup
  %22 = extractvalue { ptr, i32 } %21, 0
  store ptr %22, ptr %exn.slot, align 8
  %23 = extractvalue { ptr, i32 } %21, 1
  store i32 %23, ptr %ehselector.slot, align 4
  call void @_ZN4cvc58internal11FatalStreamD1Ev(ptr noundef nonnull align 1 dereferenceable(1) %ref.tmp) #10
  unreachable

24:                                               ; No predecessors!
  br label %eh.resume

return:                                           ; preds = %sw.bb37, %sw.bb35, %sw.bb33, %sw.bb31, %sw.bb29, %sw.bb27, %sw.bb25, %sw.bb23, %sw.bb21, %sw.bb19, %sw.bb17, %sw.bb15, %sw.bb13, %sw.bb11, %sw.bb9, %sw.bb7, %sw.bb5, %sw.bb3, %sw.bb1, %sw.bb
  %25 = load ptr, ptr %retval, align 8
  ret ptr %25

eh.resume:                                        ; preds = %24
  %exn = load ptr, ptr %exn.slot, align 8
  %sel = load i32, ptr %ehselector.slot, align 4
  %lpad.val = insertvalue { ptr, i32 } poison, ptr %exn, 0
  %lpad.val42 = insertvalue { ptr, i32 } %lpad.val, i32 %sel, 1
  resume { ptr, i32 } %lpad.val42
}